target datalayout = "e-m:e-p270:32:32-p271:32:32-p272:64:64-i64:64-i128:128-f80:128-n8:16:32:64-S128"
target triple = "x86_64-pc-linux-gnu"

%struct.settings = type { i64, i32, i32, i32, ptr, i32, i32, i32, ptr, ptr, i32, double, i32, i32, i32, i8, i32, i32, i8, i32, i32, i32, i32, i32, i32, i8, i8, i8, i8, i8, i8, i8, i32, i32, double, double, i32, i32, i8, i32, i8, i8, ptr, i32, i32, i32, i32, double, double, i32, i8, i32, i32, i32, i32, i32, i8, i8, i8, ptr, i32, i32, i32, i32, i32, i32, i32, i32, i32, i32, double, i8, i32, i32, ptr, i32 }
%struct.slabclass_t = type { i32, i32, ptr, i32, i32, ptr, i32 }
%union.pthread_mutex_t = type { %struct.__pthread_mutex_s }
%struct.__pthread_mutex_s = type { i32, i32, i32, i32, i32, i16, i16, %struct.__pthread_internal_list }
%struct.__pthread_internal_list = type { ptr, ptr }

@settings = external global %struct.settings, align 8
@slabclass = internal global [64 x %struct.slabclass_t] zeroinitializer, align 16
@power_largest = internal global i32 0, align 4
@mem_limit = internal global i64 0, align 8
@mem_base = internal global ptr null, align 8
@mem_malloced = internal global i64 0, align 8
@mem_limit_reached = internal global i8 0, align 1
@slabs_lock = internal global %union.pthread_mutex_t zeroinitializer, align 8

; Function Attrs: nounwind uwtable
define internal ptr @get_page_from_global_pool() #0 {
  %1 = alloca ptr, align 8
  %2 = alloca ptr, align 8
  %3 = alloca i32, align 4
  %4 = alloca ptr, align 8
  call void @llvm.lifetime.start.p0(i64 8, ptr %2) #9
  store ptr @slabclass, ptr %2, align 8, !tbaa !25
  %5 = load ptr, ptr %2, align 8, !tbaa !25
  %6 = getelementptr inbounds nuw %struct.slabclass_t, ptr %5, i32 0, i32 4
  %7 = load i32, ptr %6, align 4, !tbaa !27
  %8 = icmp ult i32 %7, 1
  br i1 %8, label %9, label %10

9:                                                ; preds = %0
  store ptr null, ptr %1, align 8
  store i32 1, ptr %3, align 4
  br label %26

10:                                               ; preds = %0
  call void @llvm.lifetime.start.p0(i64 8, ptr %4) #9
  %11 = load ptr, ptr %2, align 8, !tbaa !25
  %12 = getelementptr inbounds nuw %struct.slabclass_t, ptr %11, i32 0, i32 5
  %13 = load ptr, ptr %12, align 8, !tbaa !26
  %14 = load ptr, ptr %2, align 8, !tbaa !25
  %15 = getelementptr inbounds nuw %struct.slabclass_t, ptr %14, i32 0, i32 4
  %16 = load i32, ptr %15, align 4, !tbaa !27
  %17 = sub i32 %16, 1
  %18 = zext i32 %17 to i64
  %19 = getelementptr inbounds nuw ptr, ptr %13, i64 %18
  %20 = load ptr, ptr %19, align 8, !tbaa !25
  store ptr %20, ptr %4, align 8, !tbaa !21
  %21 = load ptr, ptr %2, align 8, !tbaa !25
  %22 = getelementptr inbounds nuw %struct.slabclass_t, ptr %21, i32 0, i32 4
  %23 = load i32, ptr %22, align 4, !tbaa !27
  %24 = add i32 %23, -1
  store i32 %24, ptr %22, align 4, !tbaa !27
  %25 = load ptr, ptr %4, align 8, !tbaa !21
  store ptr %25, ptr %1, align 8
  store i32 1, ptr %3, align 4
  call void @llvm.lifetime.end.p0(i64 8, ptr %4) #9
  br label %26

26:                                               ; preds = %10, %9
  call void @llvm.lifetime.end.p0(i64 8, ptr %2) #9
  %27 = load ptr, ptr %1, align 8
  ret ptr %27
}

; Function Attrs: nounwind uwtable
define internal void @memory_release() #0 {
  %1 = alloca ptr, align 8
  %2 = alloca i32, align 4
  call void @llvm.lifetime.start.p0(i64 8, ptr %1) #9
  store ptr null, ptr %1, align 8, !tbaa !25
  %3 = load ptr, ptr @mem_base, align 8, !tbaa !25
  %4 = icmp ne ptr %3, null
  br i1 %4, label %5, label %6

5:                                                ; preds = %0
  store i32 1, ptr %2, align 4
  br label %27

6:                                                ; preds = %0
  %7 = load i8, ptr getelementptr inbounds nuw (%struct.settings, ptr @settings, i32 0, i32 30), align 1, !tbaa !71, !range !38, !noundef !39
  %8 = trunc i8 %7 to i1
  br i1 %8, label %10, label %9

9:                                                ; preds = %6
  store i32 1, ptr %2, align 4
  br label %27

10:                                               ; preds = %6
  br label %11

11:                                               ; preds = %20, %10
  %12 = load i64, ptr @mem_malloced, align 8, !tbaa !4
  %13 = load i64, ptr @mem_limit, align 8, !tbaa !4
  %14 = icmp ugt i64 %12, %13
  br i1 %14, label %15, label %18

15:                                               ; preds = %11
  %16 = call ptr @get_page_from_global_pool()
  store ptr %16, ptr %1, align 8, !tbaa !25
  %17 = icmp ne ptr %16, null
  br label %18

18:                                               ; preds = %15, %11
  %19 = phi i1 [ false, %11 ], [ %17, %15 ]
  br i1 %19, label %20, label %26

20:                                               ; preds = %18
  %21 = load ptr, ptr %1, align 8, !tbaa !25
  call void @free(ptr noundef %21) #9
  %22 = load i32, ptr getelementptr inbounds nuw (%struct.settings, ptr @settings, i32 0, i32 23), align 4, !tbaa !43
  %23 = sext i32 %22 to i64
  %24 = load i64, ptr @mem_malloced, align 8, !tbaa !4
  %25 = sub i64 %24, %23
  store i64 %25, ptr @mem_malloced, align 8, !tbaa !4
  br label %11, !llvm.loop !72

26:                                               ; preds = %18
  store i32 0, ptr %2, align 4
  br label %27

27:                                               ; preds = %26, %9, %5
  call void @llvm.lifetime.end.p0(i64 8, ptr %1) #9
  %28 = load i32, ptr %2, align 4
  switch i32 %28, label %30 [
    i32 0, label %29
    i32 1, label %29
  ]

29:                                               ; preds = %27, %27
  ret void

30:                                               ; preds = %27
  unreachable
}

; Function Attrs: nounwind uwtable
define internal void @split_slab_page_into_freelist(ptr noundef %0, i32 noundef %1) #0 {
  %3 = alloca ptr, align 8
  %4 = alloca i32, align 4
  %5 = alloca ptr, align 8
  %6 = alloca i32, align 4
  store ptr %0, ptr %3, align 8, !tbaa !21
  store i32 %1, ptr %4, align 4, !tbaa !8
  call void @llvm.lifetime.start.p0(i64 8, ptr %5) #9
  %7 = load i32, ptr %4, align 4, !tbaa !8
  %8 = zext i32 %7 to i64
  %9 = getelementptr inbounds nuw [64 x %struct.slabclass_t], ptr @slabclass, i64 0, i64 %8
  store ptr %9, ptr %5, align 8, !tbaa !25
  call void @llvm.lifetime.start.p0(i64 4, ptr %6) #9
  store i32 0, ptr %6, align 4, !tbaa !8
  br label %10

10:                                               ; preds = %25, %2
  %11 = load i32, ptr %6, align 4, !tbaa !8
  %12 = load ptr, ptr %5, align 8, !tbaa !25
  %13 = getelementptr inbounds nuw %struct.slabclass_t, ptr %12, i32 0, i32 1
  %14 = load i32, ptr %13, align 4, !tbaa !44
  %15 = icmp ult i32 %11, %14
  br i1 %15, label %16, label %28

16:                                               ; preds = %10
  %17 = load ptr, ptr %3, align 8, !tbaa !21
  %18 = load i32, ptr %4, align 4, !tbaa !8
  call void @do_slabs_free(ptr noundef %17, i32 noundef %18)
  %19 = load ptr, ptr %5, align 8, !tbaa !25
  %20 = getelementptr inbounds nuw %struct.slabclass_t, ptr %19, i32 0, i32 0
  %21 = load i32, ptr %20, align 8, !tbaa !17
  %22 = load ptr, ptr %3, align 8, !tbaa !21
  %23 = zext i32 %21 to i64
  %24 = getelementptr inbounds nuw i8, ptr %22, i64 %23
  store ptr %24, ptr %3, align 8, !tbaa !21
  br label %25

25:                                               ; preds = %16
  %26 = load i32, ptr %6, align 4, !tbaa !8
  %27 = add nsw i32 %26, 1
  store i32 %27, ptr %6, align 4, !tbaa !8
  br label %10, !llvm.loop !70

28:                                               ; preds = %10
  call void @llvm.lifetime.end.p0(i64 4, ptr %6) #9
  call void @llvm.lifetime.end.p0(i64 8, ptr %5) #9
  ret void
}

; Function Attrs: nounwind uwtable
define internal i32 @do_grow_slab_list(i32 noundef %0) #0 {
  %2 = alloca i32, align 4
  %3 = alloca i32, align 4
  %4 = alloca ptr, align 8
  %5 = alloca i64, align 8
  %6 = alloca ptr, align 8
  %7 = alloca i32, align 4
  store i32 %0, ptr %3, align 4, !tbaa !8
  %8 = load i32, ptr %3, align 4, !tbaa !8
  %9 = load i32, ptr @power_largest, align 4, !tbaa !8
  %10 = icmp ugt i32 %8, %9
  br i1 %10, label %11, label %12

11:                                               ; preds = %1
  store i32 0, ptr %2, align 4
  br label %59

12:                                               ; preds = %1
  call void @llvm.lifetime.start.p0(i64 8, ptr %4) #9
  %13 = load i32, ptr %3, align 4, !tbaa !8
  %14 = zext i32 %13 to i64
  %15 = getelementptr inbounds nuw [64 x %struct.slabclass_t], ptr @slabclass, i64 0, i64 %14
  store ptr %15, ptr %4, align 8, !tbaa !25
  %16 = load ptr, ptr %4, align 8, !tbaa !25
  %17 = getelementptr inbounds nuw %struct.slabclass_t, ptr %16, i32 0, i32 4
  %18 = load i32, ptr %17, align 4, !tbaa !27
  %19 = load ptr, ptr %4, align 8, !tbaa !25
  %20 = getelementptr inbounds nuw %struct.slabclass_t, ptr %19, i32 0, i32 6
  %21 = load i32, ptr %20, align 8, !tbaa !32
  %22 = icmp eq i32 %18, %21
  br i1 %22, label %23, label %57

23:                                               ; preds = %12
  call void @llvm.lifetime.start.p0(i64 8, ptr %5) #9
  %24 = load ptr, ptr %4, align 8, !tbaa !25
  %25 = getelementptr inbounds nuw %struct.slabclass_t, ptr %24, i32 0, i32 6
  %26 = load i32, ptr %25, align 8, !tbaa !32
  %27 = icmp ne i32 %26, 0
  br i1 %27, label %28, label %33

28:                                               ; preds = %23
  %29 = load ptr, ptr %4, align 8, !tbaa !25
  %30 = getelementptr inbounds nuw %struct.slabclass_t, ptr %29, i32 0, i32 6
  %31 = load i32, ptr %30, align 8, !tbaa !32
  %32 = mul i32 %31, 2
  br label %34

33:                                               ; preds = %23
  br label %34

34:                                               ; preds = %33, %28
  %35 = phi i32 [ %32, %28 ], [ 16, %33 ]
  %36 = zext i32 %35 to i64
  store i64 %36, ptr %5, align 8, !tbaa !4
  call void @llvm.lifetime.start.p0(i64 8, ptr %6) #9
  %37 = load ptr, ptr %4, align 8, !tbaa !25
  %38 = getelementptr inbounds nuw %struct.slabclass_t, ptr %37, i32 0, i32 5
  %39 = load ptr, ptr %38, align 8, !tbaa !26
  %40 = load i64, ptr %5, align 8, !tbaa !4
  %41 = mul i64 %40, 8
  %42 = call ptr @realloc(ptr noundef %39, i64 noundef %41) #10
  store ptr %42, ptr %6, align 8, !tbaa !25
  %43 = load ptr, ptr %6, align 8, !tbaa !25
  %44 = icmp eq ptr %43, null
  br i1 %44, label %45, label %46

45:                                               ; preds = %34
  store i32 0, ptr %2, align 4
  store i32 1, ptr %7, align 4
  br label %54

46:                                               ; preds = %34
  %47 = load i64, ptr %5, align 8, !tbaa !4
  %48 = trunc i64 %47 to i32
  %49 = load ptr, ptr %4, align 8, !tbaa !25
  %50 = getelementptr inbounds nuw %struct.slabclass_t, ptr %49, i32 0, i32 6
  store i32 %48, ptr %50, align 8, !tbaa !32
  %51 = load ptr, ptr %6, align 8, !tbaa !25
  %52 = load ptr, ptr %4, align 8, !tbaa !25
  %53 = getelementptr inbounds nuw %struct.slabclass_t, ptr %52, i32 0, i32 5
  store ptr %51, ptr %53, align 8, !tbaa !26
  store i32 0, ptr %7, align 4
  br label %54

54:                                               ; preds = %46, %45
  call void @llvm.lifetime.end.p0(i64 8, ptr %6) #9
  call void @llvm.lifetime.end.p0(i64 8, ptr %5) #9
  %55 = load i32, ptr %7, align 4
  switch i32 %55, label %58 [
    i32 0, label %56
  ]

56:                                               ; preds = %54
  br label %57

57:                                               ; preds = %56, %12
  store i32 1, ptr %2, align 4
  store i32 1, ptr %7, align 4
  br label %58

58:                                               ; preds = %57, %54
  call void @llvm.lifetime.end.p0(i64 8, ptr %4) #9
  br label %59

59:                                               ; preds = %58, %11
  %60 = load i32, ptr %2, align 4
  ret i32 %60
}

; Function Attrs: nounwind uwtable
define dso_local void @slabs_finalize_page_move(i32 noundef %0, i32 noundef %1, ptr noundef %2) #0 {
  %4 = alloca i32, align 4
  %5 = alloca i32, align 4
  %6 = alloca ptr, align 8
  %7 = alloca ptr, align 8
  %8 = alloca ptr, align 8
  %9 = alloca i32, align 4
  store i32 %0, ptr %4, align 4, !tbaa !8
  store i32 %1, ptr %5, align 4, !tbaa !8
  store ptr %2, ptr %6, align 8, !tbaa !25
  %10 = call i32 @pthread_mutex_lock(ptr noundef @slabs_lock) #9
  call void @llvm.lifetime.start.p0(i64 8, ptr %7) #9
  %11 = load i32, ptr %4, align 4, !tbaa !8
  %12 = zext i32 %11 to i64
  %13 = getelementptr inbounds nuw [64 x %struct.slabclass_t], ptr @slabclass, i64 0, i64 %12
  store ptr %13, ptr %7, align 8, !tbaa !25
  call void @llvm.lifetime.start.p0(i64 8, ptr %8) #9
  %14 = load i32, ptr %5, align 4, !tbaa !8
  %15 = zext i32 %14 to i64
  %16 = getelementptr inbounds nuw [64 x %struct.slabclass_t], ptr @slabclass, i64 0, i64 %15
  store ptr %16, ptr %8, align 8, !tbaa !25
  %17 = load ptr, ptr %7, align 8, !tbaa !25
  %18 = getelementptr inbounds nuw %struct.slabclass_t, ptr %17, i32 0, i32 4
  %19 = load i32, ptr %18, align 4, !tbaa !27
  %20 = add i32 %19, -1
  store i32 %20, ptr %18, align 4, !tbaa !27
  call void @llvm.lifetime.start.p0(i64 4, ptr %9) #9
  store i32 0, ptr %9, align 4, !tbaa !8
  br label %21

21:                                               ; preds = %43, %3
  %22 = load i32, ptr %9, align 4, !tbaa !8
  %23 = load ptr, ptr %7, align 8, !tbaa !25
  %24 = getelementptr inbounds nuw %struct.slabclass_t, ptr %23, i32 0, i32 4
  %25 = load i32, ptr %24, align 4, !tbaa !27
  %26 = icmp ult i32 %22, %25
  br i1 %26, label %28, label %27

27:                                               ; preds = %21
  call void @llvm.lifetime.end.p0(i64 4, ptr %9) #9
  br label %46

28:                                               ; preds = %21
  %29 = load ptr, ptr %7, align 8, !tbaa !25
  %30 = getelementptr inbounds nuw %struct.slabclass_t, ptr %29, i32 0, i32 5
  %31 = load ptr, ptr %30, align 8, !tbaa !26
  %32 = load i32, ptr %9, align 4, !tbaa !8
  %33 = add nsw i32 %32, 1
  %34 = sext i32 %33 to i64
  %35 = getelementptr inbounds ptr, ptr %31, i64 %34
  %36 = load ptr, ptr %35, align 8, !tbaa !25
  %37 = load ptr, ptr %7, align 8, !tbaa !25
  %38 = getelementptr inbounds nuw %struct.slabclass_t, ptr %37, i32 0, i32 5
  %39 = load ptr, ptr %38, align 8, !tbaa !26
  %40 = load i32, ptr %9, align 4, !tbaa !8
  %41 = sext i32 %40 to i64
  %42 = getelementptr inbounds ptr, ptr %39, i64 %41
  store ptr %36, ptr %42, align 8, !tbaa !25
  br label %43

43:                                               ; preds = %28
  %44 = load i32, ptr %9, align 4, !tbaa !8
  %45 = add nsw i32 %44, 1
  store i32 %45, ptr %9, align 4, !tbaa !8
  br label %21, !llvm.loop !69

46:                                               ; preds = %27
  %47 = load i32, ptr %5, align 4, !tbaa !8
  %48 = call i32 @do_grow_slab_list(i32 noundef %47)
  %49 = load ptr, ptr %6, align 8, !tbaa !25
  %50 = load ptr, ptr %8, align 8, !tbaa !25
  %51 = getelementptr inbounds nuw %struct.slabclass_t, ptr %50, i32 0, i32 5
  %52 = load ptr, ptr %51, align 8, !tbaa !26
  %53 = load ptr, ptr %8, align 8, !tbaa !25
  %54 = getelementptr inbounds nuw %struct.slabclass_t, ptr %53, i32 0, i32 4
  %55 = load i32, ptr %54, align 4, !tbaa !27
  %56 = add i32 %55, 1
  store i32 %56, ptr %54, align 4, !tbaa !27
  %57 = zext i32 %55 to i64
  %58 = getelementptr inbounds nuw ptr, ptr %52, i64 %57
  store ptr %49, ptr %58, align 8, !tbaa !25
  %59 = load i32, ptr %5, align 4, !tbaa !8
  %60 = icmp ugt i32 %59, 0
  br i1 %60, label %61, label %67

61:                                               ; preds = %46
  %62 = load ptr, ptr %6, align 8, !tbaa !25
  %63 = load i32, ptr getelementptr inbounds nuw (%struct.settings, ptr @settings, i32 0, i32 23), align 4, !tbaa !43
  %64 = sext i32 %63 to i64
  call void @llvm.memset.p0.i64(ptr align 1 %62, i8 0, i64 %64, i1 false)
  %65 = load ptr, ptr %6, align 8, !tbaa !25
  %66 = load i32, ptr %5, align 4, !tbaa !8
  call void @split_slab_page_into_freelist(ptr noundef %65, i32 noundef %66)
  br label %73

67:                                               ; preds = %46
  %68 = load i32, ptr %5, align 4, !tbaa !8
  %69 = icmp eq i32 %68, 0
  br i1 %69, label %70, label %72

70:                                               ; preds = %67
  %71 = load ptr, ptr %6, align 8, !tbaa !25
  call void @llvm.memset.p0.i64(ptr align 1 %71, i8 0, i64 48, i1 false)
  store i8 0, ptr @mem_limit_reached, align 1, !tbaa !34
  call void @memory_release()
  br label %72

72:                                               ; preds = %70, %67
  br label %73

73:                                               ; preds = %72, %61
  %74 = call i32 @pthread_mutex_unlock(ptr noundef @slabs_lock) #9
  call void @llvm.lifetime.end.p0(i64 8, ptr %8) #9
  call void @llvm.lifetime.end.p0(i64 8, ptr %7) #9
  ret void
}