; Function Attrs: nounwind uwtable
define dso_local void @slabs_finalize_page_move(i32 noundef %0, i32 noundef %1, ptr noundef %2) local_unnamed_addr #4 {
  %4 = tail call i32 @pthread_mutex_lock(ptr noundef nonnull @slabs_lock) #21
  %5 = zext i32 %0 to i64
  %6 = getelementptr inbounds nuw [64 x %struct.slabclass_t], ptr @slabclass, i64 0, i64 %5
  %7 = zext i32 %1 to i64
  %8 = getelementptr inbounds nuw [64 x %struct.slabclass_t], ptr @slabclass, i64 0, i64 %7
  %9 = getelementptr inbounds nuw i8, ptr %6, i64 20
  %10 = load i32, ptr %9, align 4, !tbaa !13
  %11 = add i32 %10, -1
  store i32 %11, ptr %9, align 4, !tbaa !13
  %.not26 = icmp eq i32 %11, 0
  br i1 %.not26, label %._crit_edge, label %.lr.ph

.lr.ph:                                           ; preds = %3
  %12 = getelementptr inbounds nuw i8, ptr %6, i64 24
  %13 = load ptr, ptr %12, align 8, !tbaa !15
  %scevgep = getelementptr nuw i8, ptr %13, i64 8
  %14 = zext i32 %11 to i64
  %15 = shl nuw nsw i64 %14, 3
  tail call void @llvm.memmove.p0.p0.i64(ptr align 8 %13, ptr nonnull align 8 %scevgep, i64 %15, i1 false), !tbaa !16
  br label %._crit_edge

._crit_edge:                                      ; preds = %.lr.ph, %3
  %16 = load i32, ptr @power_largest, align 4, !tbaa !17
  %17 = icmp ugt i32 %1, %16
  br i1 %17, label %do_grow_slab_list.exit.thread, label %25

do_grow_slab_list.exit.thread:                    ; preds = %._crit_edge
  %18 = getelementptr inbounds nuw i8, ptr %8, i64 24
  %19 = load ptr, ptr %18, align 8, !tbaa !15
  %20 = getelementptr inbounds nuw i8, ptr %8, i64 20
  %21 = load i32, ptr %20, align 4, !tbaa !13
  %22 = add i32 %21, 1
  store i32 %22, ptr %20, align 4, !tbaa !13
  %23 = zext i32 %21 to i64
  %24 = getelementptr inbounds nuw ptr, ptr %19, i64 %23
  store ptr %2, ptr %24, align 8, !tbaa !16
  br label %43

25:                                               ; preds = %._crit_edge
  %26 = getelementptr inbounds nuw i8, ptr %8, i64 20
  %27 = load i32, ptr %26, align 4, !tbaa !13
  %28 = getelementptr inbounds nuw i8, ptr %8, i64 32
  %29 = load i32, ptr %28, align 8, !tbaa !14
  %30 = icmp eq i32 %27, %29
  br i1 %30, label %31, label %.do_grow_slab_list.exit_crit_edge

.do_grow_slab_list.exit_crit_edge:                ; preds = %25
  %.phi.trans.insert = getelementptr inbounds nuw i8, ptr %8, i64 24
  %.pre = load ptr, ptr %.phi.trans.insert, align 8, !tbaa !15
  br label %do_grow_slab_list.exit

31:                                               ; preds = %25
  %.not.i = icmp eq i32 %27, 0
  %32 = shl i32 %27, 1
  %spec.select.i = select i1 %.not.i, i32 16, i32 %32
  %33 = zext i32 %spec.select.i to i64
  %34 = getelementptr inbounds nuw i8, ptr %8, i64 24
  %35 = load ptr, ptr %34, align 8, !tbaa !15
  %36 = shl nuw nsw i64 %33, 3
  %37 = tail call ptr @realloc(ptr noundef %35, i64 noundef %36) #20
  %.not18.i = icmp eq ptr %37, null
  br i1 %.not18.i, label %do_grow_slab_list.exit, label %38

38:                                               ; preds = %31
  store i32 %spec.select.i, ptr %28, align 8, !tbaa !14
  store ptr %37, ptr %34, align 8, !tbaa !15
  br label %do_grow_slab_list.exit

do_grow_slab_list.exit:                           ; preds = %.do_grow_slab_list.exit_crit_edge, %31, %38
  %39 = phi ptr [ %.pre, %.do_grow_slab_list.exit_crit_edge ], [ %35, %31 ], [ %37, %38 ]
  %40 = add i32 %27, 1
  store i32 %40, ptr %26, align 4, !tbaa !13
  %41 = zext i32 %27 to i64
  %42 = getelementptr inbounds nuw ptr, ptr %39, i64 %41
  store ptr %2, ptr %42, align 8, !tbaa !16
  %.not = icmp eq i32 %1, 0
  br i1 %.not, label %54, label %43

43:                                               ; preds = %do_grow_slab_list.exit.thread, %do_grow_slab_list.exit
  %44 = load i32, ptr getelementptr inbounds nuw (i8, ptr @settings, i64 124), align 4, !tbaa !37
  %45 = sext i32 %44 to i64
  tail call void @llvm.memset.p0.i64(ptr align 1 %2, i8 0, i64 %45, i1 false)
  %46 = getelementptr inbounds nuw i8, ptr %8, i64 4
  %47 = load i32, ptr %46, align 4, !tbaa !38
  %.not.i20 = icmp eq i32 %47, 0
  br i1 %.not.i20, label %split_slab_page_into_freelist.exit, label %.lr.ph.i

.lr.ph.i:                                         ; preds = %43, %.lr.ph.i
  %.09.i = phi i32 [ %51, %.lr.ph.i ], [ 0, %43 ]
  %.078.i = phi ptr [ %50, %.lr.ph.i ], [ %2, %43 ]
  tail call fastcc void @do_slabs_free(ptr noundef %.078.i, i32 noundef %1)
  %48 = load i32, ptr %8, align 8, !tbaa !4
  %49 = zext i32 %48 to i64
  %50 = getelementptr inbounds nuw i8, ptr %.078.i, i64 %49
  %51 = add nuw nsw i32 %.09.i, 1
  %52 = load i32, ptr %46, align 4, !tbaa !38
  %53 = icmp ult i32 %51, %52
  br i1 %53, label %.lr.ph.i, label %split_slab_page_into_freelist.exit, !llvm.loop !67

54:                                               ; preds = %do_grow_slab_list.exit
  tail call void @llvm.memset.p0.i64(ptr noundef nonnull align 1 dereferenceable(48) %2, i8 0, i64 48, i1 false)
  %55 = load ptr, ptr @mem_base, align 8, !tbaa !16
  %.not.i21 = icmp eq ptr %55, null
  br i1 %.not.i21, label %56, label %split_slab_page_into_freelist.exit

56:                                               ; preds = %54
  %57 = load i8, ptr getelementptr inbounds nuw (i8, ptr @settings, i64 137), align 1, !tbaa !63, !range !64, !noundef !65
  %58 = trunc nuw i8 %57 to i1
  br i1 %58, label %.preheader.i, label %split_slab_page_into_freelist.exit

.preheader.i:                                     ; preds = %56
  %59 = load i64, ptr @mem_limit, align 8, !tbaa !31
  %mem_malloced.promoted.i = load i64, ptr @mem_malloced, align 8, !tbaa !31
  %60 = icmp ugt i64 %mem_malloced.promoted.i, %59
  br i1 %60, label %.lr.ph.i22, label %split_slab_page_into_freelist.exit

.lr.ph.i22:                                       ; preds = %.preheader.i
  %.promoted.i = load i32, ptr getelementptr inbounds nuw (i8, ptr @slabclass, i64 20), align 4
  %61 = load ptr, ptr getelementptr inbounds nuw (i8, ptr @slabclass, i64 24), align 8
  %62 = zext i32 %.promoted.i to i64
  br label %63

63:                                               ; preds = %69, %.lr.ph.i22
  %indvars.iv.i = phi i64 [ %62, %.lr.ph.i22 ], [ %indvars.iv.next.i, %69 ]
  %64 = phi i64 [ %mem_malloced.promoted.i, %.lr.ph.i22 ], [ %72, %69 ]
  %65 = icmp eq i64 %indvars.iv.i, 0
  br i1 %65, label %split_slab_page_into_freelist.exit, label %get_page_from_global_pool.exit.i

get_page_from_global_pool.exit.i:                 ; preds = %63
  %indvars.iv.next.i = add nsw i64 %indvars.iv.i, -1
  %indvars.i = trunc i64 %indvars.iv.next.i to i32
  %66 = and i64 %indvars.iv.next.i, 4294967295
  %67 = getelementptr inbounds nuw ptr, ptr %61, i64 %66
  %68 = load ptr, ptr %67, align 8, !tbaa !16
  store i32 %indvars.i, ptr getelementptr inbounds nuw (i8, ptr @slabclass, i64 20), align 4, !tbaa !13
  %.not1.i = icmp eq ptr %68, null
  br i1 %.not1.i, label %split_slab_page_into_freelist.exit, label %69

69:                                               ; preds = %get_page_from_global_pool.exit.i
  tail call void @free(ptr noundef nonnull %68) #21
  %70 = load i32, ptr getelementptr inbounds nuw (i8, ptr @settings, i64 124), align 4, !tbaa !37
  %71 = sext i32 %70 to i64
  %72 = sub i64 %64, %71
  store i64 %72, ptr @mem_malloced, align 8, !tbaa !31
  %73 = icmp ugt i64 %72, %59
  br i1 %73, label %63, label %split_slab_page_into_freelist.exit, !llvm.loop !66

split_slab_page_into_freelist.exit:               ; preds = %69, %get_page_from_global_pool.exit.i, %63, %.lr.ph.i, %.preheader.i, %56, %54, %43
  %74 = tail call i32 @pthread_mutex_unlock(ptr noundef nonnull @slabs_lock) #21
  ret void
}